target datalayout = "e-m:e-p270:32:32-p271:32:32-p272:64:64-i64:64-i128:128-f80:128-n8:16:32:64-S128"
target triple = "x86_64-pc-linux-gnu"

%struct.H5FL_reg_head_t = type { i8, i32, i32, ptr, i64, ptr }

@.str.1 = private unnamed_addr constant [103 x i8] c"generated/home/dtcxzyw/WorkSpace/Projects/compilers/llvm-opt-benchmark/bench/hdf5/hdf5/src/H5Ofsinfo.c\00", align 1
@H5_H5O_fsinfo_t_reg_free_list = internal global %struct.H5FL_reg_head_t { i8 0, i32 0, i32 0, ptr @.str.8, i64 152, ptr null }, align 8
@H5E_RESOURCE_g = external global i64, align 8
@H5E_NOSPACE_g = external global i64, align 8
@.str.3 = private unnamed_addr constant [25 x i8] c"memory allocation failed\00", align 1
@__func__.H5O__fsinfo_copy = private unnamed_addr constant [17 x i8] c"H5O__fsinfo_copy\00", align 1

; Function Attrs: nounwind uwtable
define internal ptr @H5O__fsinfo_copy(ptr noundef %0, ptr noundef %1) #0 {
  %3 = alloca ptr, align 8
  %4 = alloca ptr, align 8
  %5 = alloca ptr, align 8
  %6 = alloca ptr, align 8
  %7 = alloca ptr, align 8
  %8 = alloca i8, align 1
  store ptr %0, ptr %3, align 8
  store ptr %1, ptr %4, align 8
  %9 = load ptr, ptr %3, align 8
  store ptr %9, ptr %5, align 8
  %10 = load ptr, ptr %4, align 8
  store ptr %10, ptr %6, align 8
  store ptr null, ptr %7, align 8
  store i8 0, ptr %8, align 1
  %11 = load ptr, ptr %6, align 8
  %12 = icmp ne ptr %11, null
  br i1 %12, label %31, label %13

13:                                               ; preds = %2
  %14 = call noalias ptr @H5FL_reg_calloc(ptr noundef @H5_H5O_fsinfo_t_reg_free_list)
  store ptr %14, ptr %6, align 8
  %15 = icmp eq ptr null, %14
  br i1 %15, label %16, label %31

16:                                               ; preds = %13
  br label %17

17:                                               ; preds = %16
  br label %18

18:                                               ; preds = %17
  br label %19

19:                                               ; preds = %18
  %20 = load i64, ptr @H5E_RESOURCE_g, align 8
  %21 = load i64, ptr @H5E_NOSPACE_g, align 8
  %22 = call i32 (ptr, ptr, i32, i64, i64, ptr, ...) @H5E_printf_stack(ptr noundef @.str.1, ptr noundef @__func__.H5O__fsinfo_copy, i32 noundef 280, i64 noundef %20, i64 noundef %21, ptr noundef @.str.3)
  br label %23

23:                                               ; preds = %19
  store i8 1, ptr %8, align 1
  %24 = load i8, ptr %8, align 1
  %25 = trunc i8 %24 to i1
  %26 = zext i1 %25 to i8
  store i8 %26, ptr %8, align 1
  br label %27

27:                                               ; preds = %23
  br label %28

28:                                               ; preds = %27
  store ptr null, ptr %7, align 8
  br label %35

29:                                               ; No predecessors!
  br label %30

30:                                               ; preds = %29
  br label %31

31:                                               ; preds = %30, %13, %2
  %32 = load ptr, ptr %6, align 8
  %33 = load ptr, ptr %5, align 8
  call void @llvm.memcpy.p0.p0.i64(ptr align 8 %32, ptr align 8 %33, i64 152, i1 false)
  %34 = load ptr, ptr %6, align 8
  store ptr %34, ptr %7, align 8
  br label %35

35:                                               ; preds = %31, %28
  %36 = load ptr, ptr %7, align 8
  ret ptr %36
}